; Function Attrs: mustprogress nofree norecurse nosync nounwind willreturn memory(read, inaccessiblemem: none) uwtable
define dso_local zeroext i1 @type_is_int128(ptr nocapture noundef readonly %0) local_unnamed_addr #4 {
  %2 = getelementptr inbounds i8, ptr %0, i64 8
  %3 = load ptr, ptr %2, align 8
  %4 = load i32, ptr %3, align 8
  %5 = icmp eq i32 %4, 12
  %6 = icmp eq i32 %4, 7
  %7 = or i1 %5, %6
  ret i1 %7
}